; Function Attrs: nounwind uwtable
define internal void @_random_free(ptr noundef readonly captures(none) %0) #0 {
  %2 = getelementptr i8, ptr %0, i64 32
  %.val.i = load ptr, ptr %2, align 8, !tbaa !3
  %3 = load ptr, ptr %.val.i, align 8, !tbaa !14
  %.not.i = icmp eq ptr %3, null
  br i1 %.not.i, label %Py_DECREF.exit.i, label %4

4:                                                ; preds = %1
  store ptr null, ptr %.val.i, align 8, !tbaa !14
  %5 = load i32, ptr %3, align 8, !tbaa !15
  %.not.i.i = icmp sgt i32 %5, -1
  br i1 %.not.i.i, label %6, label %Py_DECREF.exit.i

6:                                                ; preds = %4
  %7 = add nsw i32 %5, -1
  store i32 %7, ptr %3, align 8, !tbaa !15
  %8 = icmp eq i32 %7, 0
  br i1 %8, label %9, label %Py_DECREF.exit.i

9:                                                ; preds = %6
  tail call void @_Py_Dealloc(ptr noundef nonnull %3) #8
  br label %Py_DECREF.exit.i

Py_DECREF.exit.i:                                 ; preds = %9, %6, %4, %1
  %.val15.i = load ptr, ptr %2, align 8, !tbaa !3
  %10 = getelementptr inbounds nuw i8, ptr %.val15.i, i64 8
  %11 = load ptr, ptr %10, align 8, !tbaa !14
  %.not11.i = icmp eq ptr %11, null
  br i1 %.not11.i, label %_random_clear.exit, label %12

12:                                               ; preds = %Py_DECREF.exit.i
  store ptr null, ptr %10, align 8, !tbaa !14
  %13 = load i32, ptr %11, align 8, !tbaa !15
  %.not.i12.i = icmp sgt i32 %13, -1
  br i1 %.not.i12.i, label %14, label %_random_clear.exit

14:                                               ; preds = %12
  %15 = add nsw i32 %13, -1
  store i32 %15, ptr %11, align 8, !tbaa !15
  %16 = icmp eq i32 %15, 0
  br i1 %16, label %17, label %_random_clear.exit

17:                                               ; preds = %14
  tail call void @_Py_Dealloc(ptr noundef nonnull %11) #8
  br label %_random_clear.exit

_random_clear.exit:                               ; preds = %Py_DECREF.exit.i, %12, %14, %17
  ret void
}